/*
 * Intel ACPI Component Architecture
 * AML/ASL+ Disassembler version 20190509 (64-bit version)
 * Copyright (c) 2000 - 2019 Intel Corporation
 * 
 * Disassembly of dbg2.acp, Mon Aug  7 21:57:04 2023
 *
 * ACPI Data Table [DBG2]
 *
 * Format: [HexOffset DecimalOffset ByteLength]  FieldName : FieldValue
 */

[000h 0000   4]                    Signature : "DBG2"    [Debug Port table type 2]
[004h 0004   4]                 Table Length : 000001DE
[008h 0008   1]                     Revision : 01
[009h 0009   1]                     Checksum : 00     /* Incorrect checksum, should be 7C */
[00Ah 0010   6]                       Oem ID : "QCOM  "
[010h 0016   8]                 Oem Table ID : "QCOMEDK2"
[018h 0024   4]                 Oem Revision : 00000001
[01Ch 0028   4]              Asl Compiler ID : "QCOM"
[020h 0032   4]        Asl Compiler Revision : 00000001

[024h 0036   4]                  Info Offset : 0000002C
[028h 0040   4]                   Info Count : 00000003

[02Ch 0044   1]                     Revision : 01
[02Dh 0045   2]                       Length : 0046
[02Fh 0047   1]               Register Count : 01
[030h 0048   2]              Namepath Length : 000A
[032h 0050   2]              Namepath Offset : 0026
[034h 0052   2]              OEM Data Length : 0000 [Optional field not present]
[036h 0054   2]              OEM Data Offset : 0000 [Optional field not present]
[038h 0056   2]                    Port Type : 8000
[03Ah 0058   2]                 Port Subtype : 0004
[03Ch 0060   2]                     Reserved : 0000
[03Eh 0062   2]          Base Address Offset : 0016
[040h 0064   2]          Address Size Offset : 0022

[042h 0066  12]        Base Address Register : [Generic Address Structure]
[042h 0066   1]                     Space ID : 00 [SystemMemory]
[043h 0067   1]                    Bit Width : 20
[044h 0068   1]                   Bit Offset : 00
[045h 0069   1]         Encoded Access Width : 20 [Unknown Width Encoding]
[046h 0070   8]                      Address : 00000000078B0000

[04Eh 0078   4]                 Address Size : 00001000

[052h 0082  10]                     Namepath : "\_SB.UAR1"

[072h 0114   1]                     Revision : 01
[073h 0115   2]                       Length : 00B2
[075h 0117   1]               Register Count : 01
[076h 0118   2]              Namepath Length : 000A
[078h 0120   2]              Namepath Offset : 0026
[07Ah 0122   2]              OEM Data Length : 006C
[07Ch 0124   2]              OEM Data Offset : 0046
[07Eh 0126   2]                    Port Type : 8003
[080h 0128   2]                 Port Subtype : 5143
[082h 0130   2]                     Reserved : 0000
[084h 0132   2]          Base Address Offset : 0016
[086h 0134   2]          Address Size Offset : 0022

[088h 0136  12]        Base Address Register : [Generic Address Structure]
[088h 0136   1]                     Space ID : 00 [SystemMemory]
[089h 0137   1]                    Bit Width : 20
[08Ah 0138   1]                   Bit Offset : 00
[08Bh 0139   1]         Encoded Access Width : 20 [Unknown Width Encoding]
[08Ch 0140   8]                      Address : 00000000078D9000

[094h 0148   4]                 Address Size : 00000300

[098h 0152  10]                     Namepath : "\_SB.UFN1"
[0B8h 0184 108]                     OEM Data : \
    03 00 00 00 31 58 49 46 07 00 00 00 00 00 90 00 \
    00 00 00 00 00 00 00 00 00 00 40 00 00 00 00 00 \
    4E 45 54 32 00 00 98 00 00 00 00 00 08 00 00 00 \
    00 00 9C 00 00 00 00 00 B0 0C 00 00 00 00 70 01 \
    00 00 00 00 03 00 96 60 00 00 A0 00 00 00 00 00 \
    E0 FF 00 00 00 00 40 01 00 00 00 00 00 00 08 02 \
    00 00 00 00 00 00 00 00 00 00 00 00 

[124h 0292   1]                     Revision : 01
[125h 0293   2]                       Length : 00BA
[127h 0295   1]               Register Count : 01
[128h 0296   2]              Namepath Length : 000A
[12Ah 0298   2]              Namepath Offset : 0026
[12Ch 0300   2]              OEM Data Length : 0074
[12Eh 0302   2]              OEM Data Offset : 0046
[130h 0304   2]                    Port Type : 8002
[132h 0306   2]                 Port Subtype : 0004
[134h 0308   2]                     Reserved : 0000
[136h 0310   2]          Base Address Offset : 0016
[138h 0312   2]          Address Size Offset : 0022

[13Ah 0314  12]        Base Address Register : [Generic Address Structure]
[13Ah 0314   1]                     Space ID : 00 [SystemMemory]
[13Bh 0315   1]                    Bit Width : 20
[13Ch 0316   1]                   Bit Offset : 00
[13Dh 0317   1]         Encoded Access Width : 20 [Unknown Width Encoding]
[13Eh 0318   8]                      Address : 00000000078D9000

[146h 0326   4]                 Address Size : 000001AF

[14Ah 0330  10]                     Namepath : "\_SB.UFN1"
[16Ah 0362 116]                     OEM Data : \
    74 00 00 00 00 90 8D 07 00 00 00 00 00 10 00 00 \
    07 00 00 00 40 00 00 00 90 00 00 00 98 00 00 00 \
    9C 00 00 00 70 01 00 00 A0 00 00 00 40 01 00 00 \
    00 00 00 00 00 00 00 00 00 00 00 00 00 00 00 00 \
    00 00 00 00 55 53 42 31 00 00 00 00 08 00 00 00 \
    B0 0C 00 00 03 00 96 60 E0 FF 00 00 00 00 08 02 \
    00 00 00 00 00 00 00 00 00 00 00 00 00 00 00 00 \
    00 00 00 00 

Raw Table Data: Length 478 (0x1DE)

    0000: 44 42 47 32 DE 01 00 00 01 00 51 43 4F 4D 20 20  // DBG2......QCOM  
    0010: 51 43 4F 4D 45 44 4B 32 01 00 00 00 51 43 4F 4D  // QCOMEDK2....QCOM
    0020: 01 00 00 00 2C 00 00 00 03 00 00 00 01 46 00 01  // ....,........F..
    0030: 0A 00 26 00 00 00 00 00 00 80 04 00 00 00 16 00  // ..&.............
    0040: 22 00 00 20 00 20 00 00 8B 07 00 00 00 00 00 10  // ".. . ..........
    0050: 00 00 5C 5F 53 42 2E 55 41 52 31 00 00 00 00 00  // ..\_SB.UAR1.....
    0060: 00 00 00 00 00 00 00 00 00 00 00 00 00 00 00 00  // ................
    0070: 00 00 01 B2 00 01 0A 00 26 00 6C 00 46 00 03 80  // ........&.l.F...
    0080: 43 51 00 00 16 00 22 00 00 20 00 20 00 90 8D 07  // CQ....".. . ....
    0090: 00 00 00 00 00 03 00 00 5C 5F 53 42 2E 55 46 4E  // ........\_SB.UFN
    00A0: 31 00 00 00 00 00 00 00 00 00 00 00 00 00 00 00  // 1...............
    00B0: 00 00 00 00 00 00 00 00 03 00 00 00 31 58 49 46  // ............1XIF
    00C0: 07 00 00 00 00 00 90 00 00 00 00 00 00 00 00 00  // ................
    00D0: 00 00 40 00 00 00 00 00 4E 45 54 32 00 00 98 00  // ..@.....NET2....
    00E0: 00 00 00 00 08 00 00 00 00 00 9C 00 00 00 00 00  // ................
    00F0: B0 0C 00 00 00 00 70 01 00 00 00 00 03 00 96 60  // ......p........`
    0100: 00 00 A0 00 00 00 00 00 E0 FF 00 00 00 00 40 01  // ..............@.
    0110: 00 00 00 00 00 00 08 02 00 00 00 00 00 00 00 00  // ................
    0120: 00 00 00 00 01 BA 00 01 0A 00 26 00 74 00 46 00  // ..........&.t.F.
    0130: 02 80 04 00 00 00 16 00 22 00 00 20 00 20 00 90  // ........".. . ..
    0140: 8D 07 00 00 00 00 AF 01 00 00 5C 5F 53 42 2E 55  // ..........\_SB.U
    0150: 46 4E 31 00 00 00 00 00 00 00 00 00 00 00 00 00  // FN1.............
    0160: 00 00 00 00 00 00 00 00 00 00 74 00 00 00 00 90  // ..........t.....
    0170: 8D 07 00 00 00 00 00 10 00 00 07 00 00 00 40 00  // ..............@.
    0180: 00 00 90 00 00 00 98 00 00 00 9C 00 00 00 70 01  // ..............p.
    0190: 00 00 A0 00 00 00 40 01 00 00 00 00 00 00 00 00  // ......@.........
    01A0: 00 00 00 00 00 00 00 00 00 00 00 00 00 00 55 53  // ..............US
    01B0: 42 31 00 00 00 00 08 00 00 00 B0 0C 00 00 03 00  // B1..............
    01C0: 96 60 E0 FF 00 00 00 00 08 02 00 00 00 00 00 00  // .`..............
    01D0: 00 00 00 00 00 00 00 00 00 00 00 00 00 00        // ..............
